target datalayout = "e-m:e-p270:32:32-p271:32:32-p272:64:64-i64:64-i128:128-f80:128-n8:16:32:64-S128"
target triple = "x86_64-pc-linux-gnu"

%"class.cv::Rect_" = type { i32, i32, i32, i32 }
%"class.cv::Mat" = type { i32, i32, i32, i32, ptr, ptr, ptr, ptr, ptr, ptr, %"struct.cv::MatSize", %"struct.cv::MatStep" }
%"struct.cv::MatSize" = type { ptr }
%"struct.cv::MatStep" = type { ptr, [2 x i64] }
%"class.cv::ximgproc::DisparityWLSFilterImpl" = type <{ %"class.cv::ximgproc::DisparityWLSFilter", i32, i32, i32, i32, %"class.cv::Rect_", %"class.cv::Rect_", i32, i8, [3 x i8], %"class.cv::Mat", double, double, i32, i32, float, float, i32, [4 x i8] }>
%"class.cv::ximgproc::DisparityWLSFilter" = type { %"class.cv::ximgproc::DisparityFilter" }
%"class.cv::ximgproc::DisparityFilter" = type { %"class.cv::Algorithm" }
%"class.cv::Algorithm" = type { ptr }
%"class.cv::Range" = type { i32, i32 }
%"class.cv::ParallelLoopBody" = type { ptr }
%"struct.cv::ximgproc::DisparityWLSFilterImpl::ComputeDiscontinuityAwareLRC_ParBody" = type { %"class.cv::ParallelLoopBody", ptr, ptr, ptr, ptr, ptr, ptr, %"class.cv::Rect_", %"class.cv::Rect_", i32, i32 }

; Function Attrs: inlinehint mustprogress nounwind uwtable
define linkonce_odr noundef nonnull align 4 dereferenceable(4) ptr @_ZSt3minIfERKT_S2_S2_(ptr noundef nonnull align 4 dereferenceable(4) %0, ptr noundef nonnull align 4 dereferenceable(4) %1) #6 comdat {
  %3 = alloca ptr, align 8
  %4 = alloca ptr, align 8
  %5 = alloca ptr, align 8
  store ptr %0, ptr %4, align 8, !tbaa !131
  store ptr %1, ptr %5, align 8, !tbaa !131
  %6 = load ptr, ptr %5, align 8, !tbaa !131
  %7 = load float, ptr %6, align 4, !tbaa !104
  %8 = load ptr, ptr %4, align 8, !tbaa !131
  %9 = load float, ptr %8, align 4, !tbaa !104
  %10 = fcmp olt float %7, %9
  br i1 %10, label %11, label %13

11:                                               ; preds = %2
  %12 = load ptr, ptr %5, align 8, !tbaa !131
  store ptr %12, ptr %3, align 8
  br label %15

13:                                               ; preds = %2
  %14 = load ptr, ptr %4, align 8, !tbaa !131
  store ptr %14, ptr %3, align 8
  br label %15

15:                                               ; preds = %13, %11
  %16 = load ptr, ptr %3, align 8
  ret ptr %16
}

; Function Attrs: inlinehint mustprogress nounwind uwtable
define linkonce_odr noundef float @_ZSt3absf(float noundef %0) #6 comdat {
  %2 = alloca float, align 4
  store float %0, ptr %2, align 4, !tbaa !104
  %3 = load float, ptr %2, align 4, !tbaa !104
  %4 = call float @llvm.fabs.f32(float %3)
  ret float %4
}

; Function Attrs: inlinehint mustprogress nounwind uwtable
define linkonce_odr hidden noundef ptr @_ZN2cv3Mat3ptrEi(ptr noundef nonnull align 8 dereferenceable(96) %0, i32 noundef %1) #6 comdat align 2 {
  %3 = alloca ptr, align 8
  %4 = alloca i32, align 4
  store ptr %0, ptr %3, align 8, !tbaa !50
  store i32 %1, ptr %4, align 4, !tbaa !12
  %5 = load ptr, ptr %3, align 8
  %6 = getelementptr inbounds nuw %"class.cv::Mat", ptr %5, i32 0, i32 4
  %7 = load ptr, ptr %6, align 8, !tbaa !141
  %8 = getelementptr inbounds nuw %"class.cv::Mat", ptr %5, i32 0, i32 11
  %9 = getelementptr inbounds nuw %"struct.cv::MatStep", ptr %8, i32 0, i32 0
  %10 = load ptr, ptr %9, align 8, !tbaa !142
  %11 = getelementptr inbounds i64, ptr %10, i64 0
  %12 = load i64, ptr %11, align 8, !tbaa !143
  %13 = load i32, ptr %4, align 4, !tbaa !12
  %14 = sext i32 %13 to i64
  %15 = mul i64 %12, %14
  %16 = getelementptr inbounds nuw i8, ptr %7, i64 %15
  ret ptr %16
}

; Function Attrs: inlinehint mustprogress nounwind uwtable
define linkonce_odr noundef nonnull align 4 dereferenceable(4) ptr @_ZSt3minIiERKT_S2_S2_(ptr noundef nonnull align 4 dereferenceable(4) %0, ptr noundef nonnull align 4 dereferenceable(4) %1) #6 comdat {
  %3 = alloca ptr, align 8
  %4 = alloca ptr, align 8
  %5 = alloca ptr, align 8
  store ptr %0, ptr %4, align 8, !tbaa !140
  store ptr %1, ptr %5, align 8, !tbaa !140
  %6 = load ptr, ptr %5, align 8, !tbaa !140
  %7 = load i32, ptr %6, align 4, !tbaa !12
  %8 = load ptr, ptr %4, align 8, !tbaa !140
  %9 = load i32, ptr %8, align 4, !tbaa !12
  %10 = icmp slt i32 %7, %9
  br i1 %10, label %11, label %13

11:                                               ; preds = %2
  %12 = load ptr, ptr %5, align 8, !tbaa !140
  store ptr %12, ptr %3, align 8
  br label %15

13:                                               ; preds = %2
  %14 = load ptr, ptr %4, align 8, !tbaa !140
  store ptr %14, ptr %3, align 8
  br label %15

15:                                               ; preds = %13, %11
  %16 = load ptr, ptr %3, align 8
  ret ptr %16
}

; Function Attrs: mustprogress uwtable
define hidden void @_ZNK2cv8ximgproc22DisparityWLSFilterImpl36ComputeDiscontinuityAwareLRC_ParBodyclERKNS_5RangeE(ptr noundef nonnull align 8 dereferenceable(96) %0, ptr noundef nonnull align 4 dereferenceable(8) %1) unnamed_addr #4 align 2 {
  %3 = alloca ptr, align 8
  %4 = alloca ptr, align 8
  %5 = alloca ptr, align 8
  %6 = alloca ptr, align 8
  %7 = alloca ptr, align 8
  %8 = alloca ptr, align 8
  %9 = alloca ptr, align 8
  %10 = alloca i32, align 4
  %11 = alloca i32, align 4
  %12 = alloca i32, align 4
  %13 = alloca i32, align 4
  %14 = alloca i32, align 4
  %15 = alloca i32, align 4
  %16 = alloca i32, align 4
  %17 = alloca i32, align 4
  %18 = alloca i32, align 4
  %19 = alloca i32, align 4
  %20 = alloca i32, align 4
  %21 = alloca i32, align 4
  %22 = alloca i32, align 4
  store ptr %0, ptr %3, align 8, !tbaa !117
  store ptr %1, ptr %4, align 8, !tbaa !63
  %23 = load ptr, ptr %3, align 8
  call void @llvm.lifetime.start.p0(i64 8, ptr %5) #3
  call void @llvm.lifetime.start.p0(i64 8, ptr %6) #3
  call void @llvm.lifetime.start.p0(i64 8, ptr %7) #3
  call void @llvm.lifetime.start.p0(i64 8, ptr %8) #3
  call void @llvm.lifetime.start.p0(i64 8, ptr %9) #3
  call void @llvm.lifetime.start.p0(i64 4, ptr %10) #3
  call void @llvm.lifetime.start.p0(i64 4, ptr %11) #3
  %24 = getelementptr inbounds nuw %"struct.cv::ximgproc::DisparityWLSFilterImpl::ComputeDiscontinuityAwareLRC_ParBody", ptr %23, i32 0, i32 2
  %25 = load ptr, ptr %24, align 8, !tbaa !122
  %26 = getelementptr inbounds nuw %"class.cv::Mat", ptr %25, i32 0, i32 2
  %27 = load i32, ptr %26, align 8, !tbaa !53
  store i32 %27, ptr %11, align 4, !tbaa !12
  call void @llvm.lifetime.start.p0(i64 4, ptr %12) #3
  call void @llvm.lifetime.start.p0(i64 4, ptr %13) #3
  %28 = load ptr, ptr %4, align 8, !tbaa !63
  %29 = getelementptr inbounds nuw %"class.cv::Range", ptr %28, i32 0, i32 0
  %30 = load i32, ptr %29, align 4, !tbaa !65
  %31 = getelementptr inbounds nuw %"struct.cv::ximgproc::DisparityWLSFilterImpl::ComputeDiscontinuityAwareLRC_ParBody", ptr %23, i32 0, i32 10
  %32 = load i32, ptr %31, align 4, !tbaa !128
  %33 = mul nsw i32 %30, %32
  store i32 %33, ptr %13, align 4, !tbaa !12
  %34 = call noundef nonnull align 4 dereferenceable(4) ptr @_ZSt3minIiERKT_S2_S2_(ptr noundef nonnull align 4 dereferenceable(4) %13, ptr noundef nonnull align 4 dereferenceable(4) %11)
  %35 = load i32, ptr %34, align 4, !tbaa !12
  call void @llvm.lifetime.end.p0(i64 4, ptr %13) #3
  store i32 %35, ptr %12, align 4, !tbaa !12
  call void @llvm.lifetime.start.p0(i64 4, ptr %14) #3
  call void @llvm.lifetime.start.p0(i64 4, ptr %15) #3
  %36 = load ptr, ptr %4, align 8, !tbaa !63
  %37 = getelementptr inbounds nuw %"class.cv::Range", ptr %36, i32 0, i32 1
  %38 = load i32, ptr %37, align 4, !tbaa !67
  %39 = getelementptr inbounds nuw %"struct.cv::ximgproc::DisparityWLSFilterImpl::ComputeDiscontinuityAwareLRC_ParBody", ptr %23, i32 0, i32 10
  %40 = load i32, ptr %39, align 4, !tbaa !128
  %41 = mul nsw i32 %38, %40
  store i32 %41, ptr %15, align 4, !tbaa !12
  %42 = call noundef nonnull align 4 dereferenceable(4) ptr @_ZSt3minIiERKT_S2_S2_(ptr noundef nonnull align 4 dereferenceable(4) %15, ptr noundef nonnull align 4 dereferenceable(4) %11)
  %43 = load i32, ptr %42, align 4, !tbaa !12
  call void @llvm.lifetime.end.p0(i64 4, ptr %15) #3
  store i32 %43, ptr %14, align 4, !tbaa !12
  call void @llvm.lifetime.start.p0(i64 4, ptr %16) #3
  %44 = getelementptr inbounds nuw %"struct.cv::ximgproc::DisparityWLSFilterImpl::ComputeDiscontinuityAwareLRC_ParBody", ptr %23, i32 0, i32 1
  %45 = load ptr, ptr %44, align 8, !tbaa !119
  %46 = getelementptr inbounds nuw %"class.cv::ximgproc::DisparityWLSFilterImpl", ptr %45, i32 0, i32 16
  %47 = load float, ptr %46, align 4, !tbaa !42
  %48 = getelementptr inbounds nuw %"struct.cv::ximgproc::DisparityWLSFilterImpl::ComputeDiscontinuityAwareLRC_ParBody", ptr %23, i32 0, i32 1
  %49 = load ptr, ptr %48, align 8, !tbaa !119
  %50 = getelementptr inbounds nuw %"class.cv::ximgproc::DisparityWLSFilterImpl", ptr %49, i32 0, i32 13
  %51 = load i32, ptr %50, align 8, !tbaa !39
  %52 = sitofp i32 %51 to float
  %53 = fmul float %47, %52
  %54 = fptosi float %53 to i32
  store i32 %54, ptr %16, align 4, !tbaa !12
  call void @llvm.lifetime.start.p0(i64 4, ptr %17) #3
  %55 = load i32, ptr %12, align 4, !tbaa !12
  store i32 %55, ptr %17, align 4, !tbaa !12
  br label %56

56:                                               ; preds = %166, %2
  %57 = load i32, ptr %17, align 4, !tbaa !12
  %58 = load i32, ptr %14, align 4, !tbaa !12
  %59 = icmp slt i32 %57, %58
  br i1 %59, label %61, label %60

60:                                               ; preds = %56
  store i32 2, ptr %18, align 4
  call void @llvm.lifetime.end.p0(i64 4, ptr %17) #3
  br label %169

61:                                               ; preds = %56
  %62 = getelementptr inbounds nuw %"struct.cv::ximgproc::DisparityWLSFilterImpl::ComputeDiscontinuityAwareLRC_ParBody", ptr %23, i32 0, i32 2
  %63 = load ptr, ptr %62, align 8, !tbaa !122
  %64 = load i32, ptr %17, align 4, !tbaa !12
  %65 = call noundef ptr @_ZN2cv3Mat3ptrEi(ptr noundef nonnull align 8 dereferenceable(96) %63, i32 noundef %64)
  store ptr %65, ptr %5, align 8, !tbaa !131
  %66 = getelementptr inbounds nuw %"struct.cv::ximgproc::DisparityWLSFilterImpl::ComputeDiscontinuityAwareLRC_ParBody", ptr %23, i32 0, i32 4
  %67 = load ptr, ptr %66, align 8, !tbaa !124
  %68 = load i32, ptr %17, align 4, !tbaa !12
  %69 = call noundef ptr @_ZN2cv3Mat3ptrEi(ptr noundef nonnull align 8 dereferenceable(96) %67, i32 noundef %68)
  store ptr %69, ptr %6, align 8, !tbaa !131
  %70 = getelementptr inbounds nuw %"struct.cv::ximgproc::DisparityWLSFilterImpl::ComputeDiscontinuityAwareLRC_ParBody", ptr %23, i32 0, i32 3
  %71 = load ptr, ptr %70, align 8, !tbaa !123
  %72 = load i32, ptr %17, align 4, !tbaa !12
  %73 = call noundef ptr @_ZN2cv3Mat3ptrEi(ptr noundef nonnull align 8 dereferenceable(96) %71, i32 noundef %72)
  store ptr %73, ptr %7, align 8, !tbaa !131
  %74 = getelementptr inbounds nuw %"struct.cv::ximgproc::DisparityWLSFilterImpl::ComputeDiscontinuityAwareLRC_ParBody", ptr %23, i32 0, i32 5
  %75 = load ptr, ptr %74, align 8, !tbaa !125
  %76 = load i32, ptr %17, align 4, !tbaa !12
  %77 = call noundef ptr @_ZN2cv3Mat3ptrEi(ptr noundef nonnull align 8 dereferenceable(96) %75, i32 noundef %76)
  store ptr %77, ptr %8, align 8, !tbaa !131
  %78 = getelementptr inbounds nuw %"struct.cv::ximgproc::DisparityWLSFilterImpl::ComputeDiscontinuityAwareLRC_ParBody", ptr %23, i32 0, i32 6
  %79 = load ptr, ptr %78, align 8, !tbaa !126
  %80 = load i32, ptr %17, align 4, !tbaa !12
  %81 = call noundef ptr @_ZN2cv3Mat3ptrEi(ptr noundef nonnull align 8 dereferenceable(96) %79, i32 noundef %80)
  store ptr %81, ptr %9, align 8, !tbaa !131
  call void @llvm.lifetime.start.p0(i64 4, ptr %19) #3
  %82 = getelementptr inbounds nuw %"struct.cv::ximgproc::DisparityWLSFilterImpl::ComputeDiscontinuityAwareLRC_ParBody", ptr %23, i32 0, i32 7
  %83 = getelementptr inbounds nuw %"class.cv::Rect_", ptr %82, i32 0, i32 0
  %84 = load i32, ptr %83, align 8, !tbaa !133
  store i32 %84, ptr %19, align 4, !tbaa !12
  call void @llvm.lifetime.start.p0(i64 4, ptr %20) #3
  %85 = getelementptr inbounds nuw %"struct.cv::ximgproc::DisparityWLSFilterImpl::ComputeDiscontinuityAwareLRC_ParBody", ptr %23, i32 0, i32 7
  %86 = getelementptr inbounds nuw %"class.cv::Rect_", ptr %85, i32 0, i32 0
  %87 = load i32, ptr %86, align 8, !tbaa !133
  %88 = getelementptr inbounds nuw %"struct.cv::ximgproc::DisparityWLSFilterImpl::ComputeDiscontinuityAwareLRC_ParBody", ptr %23, i32 0, i32 7
  %89 = getelementptr inbounds nuw %"class.cv::Rect_", ptr %88, i32 0, i32 2
  %90 = load i32, ptr %89, align 8, !tbaa !134
  %91 = add nsw i32 %87, %90
  store i32 %91, ptr %20, align 4, !tbaa !12
  call void @llvm.lifetime.start.p0(i64 4, ptr %21) #3
  %92 = getelementptr inbounds nuw %"struct.cv::ximgproc::DisparityWLSFilterImpl::ComputeDiscontinuityAwareLRC_ParBody", ptr %23, i32 0, i32 8
  %93 = getelementptr inbounds nuw %"class.cv::Rect_", ptr %92, i32 0, i32 0
  %94 = load i32, ptr %93, align 8, !tbaa !135
  %95 = getelementptr inbounds nuw %"struct.cv::ximgproc::DisparityWLSFilterImpl::ComputeDiscontinuityAwareLRC_ParBody", ptr %23, i32 0, i32 8
  %96 = getelementptr inbounds nuw %"class.cv::Rect_", ptr %95, i32 0, i32 2
  %97 = load i32, ptr %96, align 8, !tbaa !136
  %98 = add nsw i32 %94, %97
  store i32 %98, ptr %21, align 4, !tbaa !12
  call void @llvm.lifetime.start.p0(i64 4, ptr %22) #3
  %99 = load i32, ptr %19, align 4, !tbaa !12
  store i32 %99, ptr %22, align 4, !tbaa !12
  br label %100

100:                                              ; preds = %162, %61
  %101 = load i32, ptr %22, align 4, !tbaa !12
  %102 = load i32, ptr %20, align 4, !tbaa !12
  %103 = icmp slt i32 %101, %102
  br i1 %103, label %105, label %104

104:                                              ; preds = %100
  store i32 5, ptr %18, align 4
  call void @llvm.lifetime.end.p0(i64 4, ptr %22) #3
  br label %165

105:                                              ; preds = %100
  %106 = load i32, ptr %22, align 4, !tbaa !12
  %107 = load ptr, ptr %5, align 8, !tbaa !131
  %108 = load i32, ptr %22, align 4, !tbaa !12
  %109 = sext i32 %108 to i64
  %110 = getelementptr inbounds float, ptr %107, i64 %109
  %111 = load float, ptr %110, align 4, !tbaa !104
  %112 = fptosi float %111 to i32
  %113 = ashr i32 %112, 4
  %114 = sub nsw i32 %106, %113
  store i32 %114, ptr %10, align 4, !tbaa !12
  %115 = load i32, ptr %10, align 4, !tbaa !12
  %116 = getelementptr inbounds nuw %"struct.cv::ximgproc::DisparityWLSFilterImpl::ComputeDiscontinuityAwareLRC_ParBody", ptr %23, i32 0, i32 8
  %117 = getelementptr inbounds nuw %"class.cv::Rect_", ptr %116, i32 0, i32 0
  %118 = load i32, ptr %117, align 8, !tbaa !135
  %119 = icmp sge i32 %115, %118
  br i1 %119, label %120, label %161

120:                                              ; preds = %105
  %121 = load i32, ptr %10, align 4, !tbaa !12
  %122 = load i32, ptr %21, align 4, !tbaa !12
  %123 = icmp slt i32 %121, %122
  br i1 %123, label %124, label %161

124:                                              ; preds = %120
  %125 = load ptr, ptr %5, align 8, !tbaa !131
  %126 = load i32, ptr %22, align 4, !tbaa !12
  %127 = sext i32 %126 to i64
  %128 = getelementptr inbounds float, ptr %125, i64 %127
  %129 = load float, ptr %128, align 4, !tbaa !104
  %130 = load ptr, ptr %7, align 8, !tbaa !131
  %131 = load i32, ptr %10, align 4, !tbaa !12
  %132 = sext i32 %131 to i64
  %133 = getelementptr inbounds float, ptr %130, i64 %132
  %134 = load float, ptr %133, align 4, !tbaa !104
  %135 = fadd float %129, %134
  %136 = call noundef float @_ZSt3absf(float noundef %135)
  %137 = load i32, ptr %16, align 4, !tbaa !12
  %138 = sitofp i32 %137 to float
  %139 = fcmp olt float %136, %138
  br i1 %139, label %140, label %155

140:                                              ; preds = %124
  %141 = load ptr, ptr %6, align 8, !tbaa !131
  %142 = load i32, ptr %22, align 4, !tbaa !12
  %143 = sext i32 %142 to i64
  %144 = getelementptr inbounds float, ptr %141, i64 %143
  %145 = load ptr, ptr %8, align 8, !tbaa !131
  %146 = load i32, ptr %10, align 4, !tbaa !12
  %147 = sext i32 %146 to i64
  %148 = getelementptr inbounds float, ptr %145, i64 %147
  %149 = call noundef nonnull align 4 dereferenceable(4) ptr @_ZSt3minIfERKT_S2_S2_(ptr noundef nonnull align 4 dereferenceable(4) %144, ptr noundef nonnull align 4 dereferenceable(4) %148)
  %150 = load float, ptr %149, align 4, !tbaa !104
  %151 = load ptr, ptr %9, align 8, !tbaa !131
  %152 = load i32, ptr %22, align 4, !tbaa !12
  %153 = sext i32 %152 to i64
  %154 = getelementptr inbounds float, ptr %151, i64 %153
  store float %150, ptr %154, align 4, !tbaa !104
  br label %160

155:                                              ; preds = %124
  %156 = load ptr, ptr %9, align 8, !tbaa !131
  %157 = load i32, ptr %22, align 4, !tbaa !12
  %158 = sext i32 %157 to i64
  %159 = getelementptr inbounds float, ptr %156, i64 %158
  store float 0.000000e+00, ptr %159, align 4, !tbaa !104
  br label %160

160:                                              ; preds = %155, %140
  br label %161

161:                                              ; preds = %160, %120, %105
  br label %162

162:                                              ; preds = %161
  %163 = load i32, ptr %22, align 4, !tbaa !12
  %164 = add nsw i32 %163, 1
  store i32 %164, ptr %22, align 4, !tbaa !12
  br label %100, !llvm.loop !137

165:                                              ; preds = %104
  call void @llvm.lifetime.end.p0(i64 4, ptr %21) #3
  call void @llvm.lifetime.end.p0(i64 4, ptr %20) #3
  call void @llvm.lifetime.end.p0(i64 4, ptr %19) #3
  br label %166

166:                                              ; preds = %165
  %167 = load i32, ptr %17, align 4, !tbaa !12
  %168 = add nsw i32 %167, 1
  store i32 %168, ptr %17, align 4, !tbaa !12
  br label %56, !llvm.loop !139

169:                                              ; preds = %60
  call void @llvm.lifetime.end.p0(i64 4, ptr %16) #3
  call void @llvm.lifetime.end.p0(i64 4, ptr %14) #3
  call void @llvm.lifetime.end.p0(i64 4, ptr %12) #3
  call void @llvm.lifetime.end.p0(i64 4, ptr %11) #3
  call void @llvm.lifetime.end.p0(i64 4, ptr %10) #3
  call void @llvm.lifetime.end.p0(i64 8, ptr %9) #3
  call void @llvm.lifetime.end.p0(i64 8, ptr %8) #3
  call void @llvm.lifetime.end.p0(i64 8, ptr %7) #3
  call void @llvm.lifetime.end.p0(i64 8, ptr %6) #3
  call void @llvm.lifetime.end.p0(i64 8, ptr %5) #3
  ret void
}