; Function Attrs: mustprogress nofree norecurse nosync nounwind memory(readwrite, inaccessiblemem: none) uwtable
define hidden void @_ZNK2cv8ximgproc22DisparityWLSFilterImpl36ComputeDiscontinuityAwareLRC_ParBodyclERKNS_5RangeE(ptr noundef nonnull readonly align 8 captures(none) dereferenceable(96) %0, ptr noundef nonnull readonly align 4 captures(none) dereferenceable(8) %1) unnamed_addr #14 align 2 {
  %3 = getelementptr inbounds nuw i8, ptr %0, i64 16
  %4 = load ptr, ptr %3, align 8, !tbaa !90
  %5 = getelementptr inbounds nuw i8, ptr %4, i64 8
  %6 = load i32, ptr %5, align 8, !tbaa !54
  %7 = load i32, ptr %1, align 4, !tbaa !45
  %8 = getelementptr inbounds nuw i8, ptr %0, i64 92
  %9 = load i32, ptr %8, align 4, !tbaa !96
  %10 = mul nsw i32 %9, %7
  %11 = getelementptr inbounds nuw i8, ptr %1, i64 4
  %12 = load i32, ptr %11, align 4, !tbaa !47
  %13 = mul nsw i32 %12, %9
  %.sroa.speculated = tail call i32 @llvm.smin.i32(i32 %6, i32 %13)
  %14 = icmp slt i32 %10, %.sroa.speculated
  br i1 %14, label %.lr.ph51, label %._crit_edge52

.lr.ph51:                                         ; preds = %2
  %15 = getelementptr inbounds nuw i8, ptr %0, i64 8
  %16 = load ptr, ptr %15, align 8, !tbaa !88
  %17 = getelementptr inbounds nuw i8, ptr %16, i64 188
  %18 = load float, ptr %17, align 4, !tbaa !34
  %19 = getelementptr inbounds nuw i8, ptr %16, i64 176
  %20 = load i32, ptr %19, align 8, !tbaa !31
  %21 = sitofp i32 %20 to float
  %22 = fmul float %18, %21
  %23 = fptosi float %22 to i32
  %24 = getelementptr inbounds nuw i8, ptr %4, i64 16
  %25 = load ptr, ptr %24, align 8, !tbaa !150
  %26 = getelementptr inbounds nuw i8, ptr %4, i64 72
  %27 = load ptr, ptr %26, align 8, !tbaa !151
  %28 = load i64, ptr %27, align 8, !tbaa !152
  %29 = getelementptr inbounds nuw i8, ptr %0, i64 32
  %30 = load ptr, ptr %29, align 8, !tbaa !92
  %31 = getelementptr inbounds nuw i8, ptr %30, i64 16
  %32 = load ptr, ptr %31, align 8, !tbaa !150
  %33 = getelementptr inbounds nuw i8, ptr %30, i64 72
  %34 = load ptr, ptr %33, align 8, !tbaa !151
  %35 = load i64, ptr %34, align 8, !tbaa !152
  %36 = getelementptr inbounds nuw i8, ptr %0, i64 24
  %37 = load ptr, ptr %36, align 8, !tbaa !91
  %38 = getelementptr inbounds nuw i8, ptr %37, i64 16
  %39 = load ptr, ptr %38, align 8, !tbaa !150
  %40 = getelementptr inbounds nuw i8, ptr %37, i64 72
  %41 = load ptr, ptr %40, align 8, !tbaa !151
  %42 = load i64, ptr %41, align 8, !tbaa !152
  %43 = getelementptr inbounds nuw i8, ptr %0, i64 40
  %44 = load ptr, ptr %43, align 8, !tbaa !93
  %45 = getelementptr inbounds nuw i8, ptr %44, i64 16
  %46 = load ptr, ptr %45, align 8, !tbaa !150
  %47 = getelementptr inbounds nuw i8, ptr %44, i64 72
  %48 = load ptr, ptr %47, align 8, !tbaa !151
  %49 = load i64, ptr %48, align 8, !tbaa !152
  %50 = getelementptr inbounds nuw i8, ptr %0, i64 48
  %51 = load ptr, ptr %50, align 8, !tbaa !94
  %52 = getelementptr inbounds nuw i8, ptr %51, i64 16
  %53 = load ptr, ptr %52, align 8, !tbaa !150
  %54 = getelementptr inbounds nuw i8, ptr %51, i64 72
  %55 = load ptr, ptr %54, align 8, !tbaa !151
  %56 = load i64, ptr %55, align 8, !tbaa !152
  %57 = getelementptr inbounds nuw i8, ptr %0, i64 64
  %58 = load i32, ptr %57, align 8, !tbaa !153
  %59 = icmp sgt i32 %58, 0
  %60 = sitofp i32 %23 to float
  br i1 %59, label %.lr.ph.us.preheader, label %._crit_edge52

.lr.ph.us.preheader:                              ; preds = %.lr.ph51
  %61 = getelementptr inbounds nuw i8, ptr %0, i64 80
  %62 = load i32, ptr %61, align 8, !tbaa !154
  %63 = getelementptr inbounds nuw i8, ptr %0, i64 72
  %64 = load i32, ptr %63, align 8, !tbaa !155
  %65 = add nsw i32 %62, %64
  %66 = getelementptr inbounds nuw i8, ptr %0, i64 56
  %67 = load i32, ptr %66, align 8, !tbaa !156
  %68 = add nsw i32 %58, %67
  %.sroa.speculated40 = tail call i32 @llvm.smin.i32(i32 %6, i32 %10)
  %69 = sext i32 %67 to i64
  %70 = sext i32 %68 to i64
  %71 = tail call i32 @llvm.smin.i32(i32 %6, i32 %10)
  %smin = sext i32 %71 to i64
  %72 = add i32 %.sroa.speculated, %71
  %73 = sub i32 %72, %.sroa.speculated40
  %74 = sext i32 %64 to i64
  %75 = sext i32 %65 to i64
  br label %.lr.ph.us

.lr.ph.us:                                        ; preds = %.lr.ph.us.preheader, %._crit_edge.us
  %indvars.iv55 = phi i64 [ %smin, %.lr.ph.us.preheader ], [ %indvars.iv.next56, %._crit_edge.us ]
  %76 = mul i64 %28, %indvars.iv55
  %77 = getelementptr inbounds nuw i8, ptr %25, i64 %76
  %78 = mul i64 %35, %indvars.iv55
  %79 = getelementptr inbounds nuw i8, ptr %32, i64 %78
  %80 = mul i64 %42, %indvars.iv55
  %81 = getelementptr inbounds nuw i8, ptr %39, i64 %80
  %82 = mul i64 %49, %indvars.iv55
  %83 = getelementptr inbounds nuw i8, ptr %46, i64 %82
  %84 = mul i64 %56, %indvars.iv55
  %85 = getelementptr inbounds nuw i8, ptr %53, i64 %84
  br label %86

86:                                               ; preds = %.lr.ph.us, %107
  %indvars.iv = phi i64 [ %69, %.lr.ph.us ], [ %indvars.iv.next, %107 ]
  %87 = getelementptr inbounds float, ptr %77, i64 %indvars.iv
  %88 = load float, ptr %87, align 4, !tbaa !157
  %89 = fptosi float %88 to i32
  %90 = ashr i32 %89, 4
  %91 = sext i32 %90 to i64
  %92 = sub nsw i64 %indvars.iv, %91
  %.not.us.wide = icmp sge i64 %92, %74
  %.wide = icmp slt i64 %92, %75
  %or.cond.us = select i1 %.not.us.wide, i1 %.wide, i1 false
  br i1 %or.cond.us, label %93, label %107

93:                                               ; preds = %86
  %94 = getelementptr inbounds float, ptr %81, i64 %92
  %95 = load float, ptr %94, align 4, !tbaa !157
  %96 = fadd float %88, %95
  %97 = tail call noundef float @llvm.fabs.f32(float %96)
  %98 = fcmp olt float %97, %60
  br i1 %98, label %99, label %.sink.split

99:                                               ; preds = %93
  %100 = getelementptr inbounds float, ptr %79, i64 %indvars.iv
  %101 = getelementptr inbounds float, ptr %83, i64 %92
  %102 = load float, ptr %101, align 4, !tbaa !157
  %103 = load float, ptr %100, align 4, !tbaa !157
  %104 = fcmp olt float %102, %103
  %105 = select i1 %104, float %102, float %103
  br label %.sink.split

.sink.split:                                      ; preds = %93, %99
  %.sink = phi float [ %105, %99 ], [ 0.000000e+00, %93 ]
  %106 = getelementptr inbounds float, ptr %85, i64 %indvars.iv
  store float %.sink, ptr %106, align 4, !tbaa !157
  br label %107

107:                                              ; preds = %.sink.split, %86
  %indvars.iv.next = add nsw i64 %indvars.iv, 1
  %108 = icmp slt i64 %indvars.iv.next, %70
  br i1 %108, label %86, label %._crit_edge.us, !llvm.loop !158

._crit_edge.us:                                   ; preds = %107
  %indvars.iv.next56 = add nsw i64 %indvars.iv55, 1
  %lftr.wideiv = trunc i64 %indvars.iv.next56 to i32
  %exitcond.not = icmp eq i32 %73, %lftr.wideiv
  br i1 %exitcond.not, label %._crit_edge52, label %.lr.ph.us, !llvm.loop !160

._crit_edge52:                                    ; preds = %._crit_edge.us, %.lr.ph51, %2
  ret void
}